; Function Attrs: nounwind uwtable
define hidden i32 @fdrExecStreaming(ptr noundef %0, ptr noundef %1, i64 noundef %2, ptr noundef %3, i64 noundef %4, i64 noundef %5, ptr noundef %6, ptr noundef %7, i64 noundef %8) local_unnamed_addr #0 {
  %10 = alloca %struct.FDR_Runtime_Args, align 8
  call void @llvm.lifetime.start.p0(i64 72, ptr nonnull %10) #8
  store ptr %3, ptr %10, align 8
  %11 = getelementptr inbounds nuw i8, ptr %10, i64 8
  store i64 %4, ptr %11, align 8
  %12 = getelementptr inbounds nuw i8, ptr %10, i64 16
  store ptr %1, ptr %12, align 8
  %13 = getelementptr inbounds nuw i8, ptr %10, i64 24
  store i64 %2, ptr %13, align 8
  %14 = getelementptr inbounds nuw i8, ptr %10, i64 32
  store i64 %5, ptr %14, align 8
  %15 = getelementptr inbounds nuw i8, ptr %10, i64 40
  store ptr %6, ptr %15, align 8
  %16 = getelementptr inbounds nuw i8, ptr %10, i64 48
  store ptr %7, ptr %16, align 8
  %17 = getelementptr inbounds nuw i8, ptr %10, i64 56
  %18 = icmp ult i64 %4, 256
  br i1 %18, label %19, label %21

19:                                               ; preds = %9
  %20 = getelementptr inbounds nuw i8, ptr %3, i64 %4
  br label %nextFloodDetect.exit

21:                                               ; preds = %9
  %22 = ptrtoint ptr %3 to i64
  %23 = add i64 %22, 7
  %24 = and i64 %23, -8
  %25 = inttoptr i64 %24 to ptr
  %26 = load i64, ptr %25, align 8
  %27 = getelementptr inbounds nuw i8, ptr %3, i64 8
  %28 = ptrtoint ptr %27 to i64
  %29 = add i64 %28, 7
  %30 = and i64 %29, -8
  %31 = inttoptr i64 %30 to ptr
  %32 = load i64, ptr %31, align 8
  %33 = icmp eq i64 %26, %32
  br i1 %33, label %34, label %36

34:                                               ; preds = %21
  %35 = getelementptr inbounds nuw i8, ptr %3, i64 32
  br label %nextFloodDetect.exit

36:                                               ; preds = %21
  %37 = lshr i64 %4, 1
  %38 = getelementptr inbounds nuw i8, ptr %3, i64 %37
  %39 = ptrtoint ptr %38 to i64
  %40 = add i64 %39, 7
  %41 = and i64 %40, -8
  %42 = inttoptr i64 %41 to ptr
  %43 = load i64, ptr %42, align 8
  %44 = getelementptr inbounds nuw i8, ptr %38, i64 8
  %45 = ptrtoint ptr %44 to i64
  %46 = add i64 %45, 7
  %47 = and i64 %46, -8
  %48 = inttoptr i64 %47 to ptr
  %49 = load i64, ptr %48, align 8
  %50 = icmp eq i64 %43, %49
  br i1 %50, label %51, label %53

51:                                               ; preds = %36
  %52 = getelementptr inbounds nuw i8, ptr %3, i64 32
  br label %nextFloodDetect.exit

53:                                               ; preds = %36
  %54 = getelementptr inbounds nuw i8, ptr %3, i64 %4
  %55 = getelementptr inbounds i8, ptr %54, i64 -24
  %56 = ptrtoint ptr %55 to i64
  %57 = add i64 %56, 7
  %58 = and i64 %57, -8
  %59 = inttoptr i64 %58 to ptr
  %60 = load i64, ptr %59, align 8
  %61 = getelementptr inbounds i8, ptr %54, i64 -16
  %62 = ptrtoint ptr %61 to i64
  %63 = add i64 %62, 7
  %64 = and i64 %63, -8
  %65 = inttoptr i64 %64 to ptr
  %66 = load i64, ptr %65, align 8
  %67 = icmp eq i64 %60, %66
  %68 = getelementptr inbounds nuw i8, ptr %3, i64 32
  %.3.i = select i1 %67, ptr %68, ptr %54
  br label %nextFloodDetect.exit

nextFloodDetect.exit:                             ; preds = %19, %34, %51, %53
  %.0.i = phi ptr [ %20, %19 ], [ %35, %34 ], [ %52, %51 ], [ %.3.i, %53 ]
  store ptr %.0.i, ptr %17, align 8
  %69 = getelementptr inbounds nuw i8, ptr %10, i64 64
  %.not = icmp eq ptr %1, null
  br i1 %.not, label %74, label %70

70:                                               ; preds = %nextFloodDetect.exit
  %71 = getelementptr inbounds nuw i8, ptr %1, i64 %2
  %72 = getelementptr inbounds i8, ptr %71, i64 -8
  %73 = load i64, ptr %72, align 1
  br label %74

74:                                               ; preds = %nextFloodDetect.exit, %70
  %75 = phi i64 [ %73, %70 ], [ 0, %nextFloodDetect.exit ]
  store i64 %75, ptr %69, align 8
  %.not16 = icmp ult i64 %5, %4
  br i1 %.not16, label %76, label %82, !prof !5

76:                                               ; preds = %74
  %77 = load i32, ptr %0, align 16
  %78 = zext i32 %77 to i64
  %79 = getelementptr inbounds nuw [19 x ptr], ptr @funcs, i64 0, i64 %78
  %80 = load ptr, ptr %79, align 8
  %81 = call i32 %80(ptr noundef nonnull %0, ptr noundef nonnull %10, i64 noundef %8) #8
  br label %82

82:                                               ; preds = %74, %76
  %.0 = phi i32 [ %81, %76 ], [ 0, %74 ]
  call void @llvm.lifetime.end.p0(i64 72, ptr nonnull %10) #8
  ret i32 %.0
}